Certificate:
    Data:
        Version: 3 (0x2)
        Serial Number:
            f7:47:32:79:80:cd:94:ea:db:ac:0c:a9:02:51:93:a4
        Signature Algorithm: sha256WithRSAEncryption
        Issuer: CN=Easy-RSA CA
        Validity
            Not Before: Jun 20 22:20:09 2024 GMT
            Not After : Sep 23 22:20:09 2026 GMT
        Subject: CN=100.10.10.12
        Subject Public Key Info:
            Public Key Algorithm: rsaEncryption
                RSA Public-Key: (2048 bit)
                Modulus:
                    00:e1:4f:5e:1f:d2:66:55:f8:be:a5:ba:0f:4d:7e:
                    0b:97:7b:f6:e3:e3:ce:ff:27:dd:24:24:da:b9:0f:
                    a3:ea:31:a9:da:f5:24:83:aa:52:47:53:f3:57:52:
                    47:c4:04:a5:90:ed:74:83:97:e8:f7:5b:db:0f:fe:
                    e6:dd:2b:da:fd:af:9f:3e:f1:b9:8b:d2:b4:c1:0c:
                    65:13:60:cd:0c:88:b1:4c:9b:2c:6c:17:d2:ee:e2:
                    41:e2:05:6b:d7:6e:13:43:26:ee:cd:7c:4b:73:a5:
                    c9:0a:15:39:81:b0:94:0c:bb:62:28:09:a7:86:d9:
                    d8:89:9d:46:e9:a1:23:41:26:a4:c0:c7:e7:4b:30:
                    da:50:7f:8b:71:96:44:f0:75:b1:65:48:0f:5f:69:
                    45:e2:b0:2c:eb:54:7e:d5:ef:e0:d9:24:bf:d0:79:
                    ce:68:c3:61:d2:69:b6:c2:a6:09:bf:4f:6c:f0:a8:
                    86:f0:57:d1:ba:c1:4c:7f:cf:76:d5:99:af:e1:5f:
                    e5:99:e1:d7:61:e2:39:00:6c:85:b7:98:64:e6:8f:
                    61:a8:0c:f8:55:36:d2:20:ef:ae:2c:a7:6f:ab:aa:
                    17:cc:34:9f:32:4e:ac:fd:67:70:ce:0b:e7:43:7f:
                    3a:2e:93:2d:5a:75:d3:96:c5:67:e6:c5:be:59:50:
                    bc:dd
                Exponent: 65537 (0x10001)
        X509v3 extensions:
            X509v3 Basic Constraints: 
                CA:FALSE
            X509v3 Subject Key Identifier: 
                80:4A:97:C0:6B:CD:BB:E6:C6:8B:68:2C:30:E4:36:67:73:1F:03:16
            X509v3 Authority Key Identifier: 
                keyid:6A:76:9A:9F:A1:6A:EF:F8:89:D5:C9:BA:0B:94:11:DD:1F:00:21:1D
                DirName:/CN=Easy-RSA CA
                serial:3D:A1:87:39:4A:89:DB:E6:DF:60:02:2D:02:D8:14:F3:31:60:29:B9

            X509v3 Extended Key Usage: 
                TLS Web Server Authentication
            X509v3 Key Usage: 
                Digital Signature, Key Encipherment
            X509v3 Subject Alternative Name: 
                IP Address:100.10.10.12
    Signature Algorithm: sha256WithRSAEncryption
         7c:0b:95:3b:e9:59:cc:09:d4:e0:76:7a:bf:47:df:cd:09:b9:
         07:05:c6:2b:d7:1b:2a:29:1b:8b:b2:4c:66:fe:bc:ed:79:20:
         8e:8b:8b:b9:04:5d:22:c9:dc:f6:47:ef:84:d5:d9:88:c9:3e:
         34:f7:d9:33:41:8d:ee:a8:74:bd:f3:92:11:aa:63:42:77:89:
         4b:d3:3c:d9:43:09:fb:1c:31:1f:13:f8:d8:bb:ab:37:d7:cc:
         4a:bb:fa:8d:9a:8f:d7:57:48:b5:4f:27:9c:65:60:40:67:a7:
         fb:c0:cf:27:90:65:e3:d4:37:ed:96:6c:7c:ba:90:68:b2:a3:
         ee:1f:a0:69:af:1d:a2:f4:7c:d7:3d:6d:e8:50:45:5d:f2:1e:
         b3:54:a2:31:71:e0:21:60:bf:dd:92:39:14:69:f2:4d:05:c4:
         23:11:8a:39:8e:bb:79:80:54:bb:cf:ec:86:ea:cd:c0:36:07:
         09:9c:a8:ea:fe:8f:b3:43:5c:a4:3b:24:af:e0:f8:79:20:3b:
         d7:66:ff:58:12:33:f3:08:10:91:f5:e6:67:78:54:b1:50:5b:
         b4:42:43:75:3d:f8:b6:8e:59:39:1c:f1:b3:87:eb:a3:8a:41:
         e4:2e:78:cb:a8:53:2b:64:e4:ac:c1:98:61:1c:7a:87:0e:35:
         2c:b4:93:83
-----BEGIN CERTIFICATE-----
MIIDbDCCAlSgAwIBAgIRAPdHMnmAzZTq26wMqQJRk6QwDQYJKoZIhvcNAQELBQAw
FjEUMBIGA1UEAwwLRWFzeS1SU0EgQ0EwHhcNMjQwNjIwMjIyMDA5WhcNMjYwOTIz
MjIyMDA5WjAXMRUwEwYDVQQDDAwxMDAuMTAuMTAuMTIwggEiMA0GCSqGSIb3DQEB
AQUAA4IBDwAwggEKAoIBAQDhT14f0mZV+L6lug9NfguXe/bj487/J90kJNq5D6Pq
Mana9SSDqlJHU/NXUkfEBKWQ7XSDl+j3W9sP/ubdK9r9r58+8bmL0rTBDGUTYM0M
iLFMmyxsF9Lu4kHiBWvXbhNDJu7NfEtzpckKFTmBsJQMu2IoCaeG2diJnUbpoSNB
JqTAx+dLMNpQf4txlkTwdbFlSA9faUXisCzrVH7V7+DZJL/Qec5ow2HSabbCpgm/
T2zwqIbwV9G6wUx/z3bVma/hX+WZ4ddh4jkAbIW3mGTmj2GoDPhVNtIg764sp2+r
qhfMNJ8yTqz9Z3DOC+dDfzouky1addOWxWfmxb5ZULzdAgMBAAGjgbMwgbAwCQYD
VR0TBAIwADAdBgNVHQ4EFgQUgEqXwGvNu+bGi2gsMOQ2Z3MfAxYwUQYDVR0jBEow
SIAUanaan6Fq7/iJ1cm6C5QR3R8AIR2hGqQYMBYxFDASBgNVBAMMC0Vhc3ktUlNB
IENBghQ9oYc5Sonb5t9gAi0C2BTzMWApuTATBgNVHSUEDDAKBggrBgEFBQcDATAL
BgNVHQ8EBAMCBaAwDwYDVR0RBAgwBocEZAoKDDANBgkqhkiG9w0BAQsFAAOCAQEA
fAuVO+lZzAnU4HZ6v0ffzQm5BwXGK9cbKikbi7JMZv687XkgjouLuQRdIsnc9kfv
hNXZiMk+NPfZM0GN7qh0vfOSEapjQneJS9M82UMJ+xwxHxP42LurN9fMSrv6jZqP
11dItU8nnGVgQGen+8DPJ5Bl49Q37ZZsfLqQaLKj7h+gaa8dovR81z1t6FBFXfIe
s1SiMXHgIWC/3ZI5FGnyTQXEIxGKOY67eYBUu8/shurNwDYHCZyo6v6Ps0NcpDsk
r+D4eSA712b/WBIz8wgQkfXmZ3hUsVBbtEJDdT34to5ZORzxs4fro4pB5C54y6hT
K2TkrMGYYRx6hw41LLSTgw==
-----END CERTIFICATE-----
