Certificate:
    Data:
        Version: 3 (0x2)
        Serial Number:
            17:de:bf:00:52:4e:52:d9:fb:a8:f8:76:bf:4a:81:d8
        Signature Algorithm: sha256WithRSAEncryption
        Issuer: CN=Easy-RSA CA
        Validity
            Not Before: Jun 20 23:20:31 2024 GMT
            Not After : Sep 23 23:20:31 2026 GMT
        Subject: CN=100.100.12.13
        Subject Public Key Info:
            Public Key Algorithm: rsaEncryption
                RSA Public-Key: (2048 bit)
                Modulus:
                    00:ba:48:60:50:ce:9a:ed:4b:31:37:3f:4c:44:f2:
                    8d:af:08:ff:c0:8c:1a:c3:c1:14:b1:1b:65:17:58:
                    e9:8f:56:d7:96:80:b6:ea:b3:e6:c5:ba:78:50:04:
                    51:6a:c5:9c:f5:a9:b0:ee:6f:af:49:42:98:d1:02:
                    95:7c:13:f7:38:8d:5e:45:68:35:70:2c:fb:df:34:
                    1a:cf:27:ae:03:49:66:00:44:b5:bd:7c:27:07:63:
                    9a:f4:0d:b4:5e:41:4e:00:8f:e2:09:50:1f:05:e2:
                    5b:02:7f:59:0d:e9:7c:b0:56:7e:82:29:cb:da:8c:
                    95:16:2f:57:49:f3:f4:79:13:92:89:08:46:2e:de:
                    b8:cb:70:4d:8e:f1:82:37:59:0d:37:74:20:33:6b:
                    66:6a:86:26:f8:35:e8:99:c7:ae:fc:27:07:8a:01:
                    ac:2f:bb:6f:02:fb:49:a4:15:26:8e:ed:84:91:f2:
                    da:59:57:3c:b5:69:07:1f:f2:a5:44:c9:b7:65:0a:
                    2b:23:bb:ac:bc:9c:a9:a4:b5:dd:31:63:fa:a3:9a:
                    e9:6f:c8:bd:c1:7d:32:76:ae:6f:99:a7:e2:18:8f:
                    7e:ed:19:74:dc:ce:bd:d0:7c:1b:44:8a:a3:3a:34:
                    47:f5:9a:5b:67:34:f2:72:55:3e:be:c0:ff:fd:de:
                    c2:31
                Exponent: 65537 (0x10001)
        X509v3 extensions:
            X509v3 Basic Constraints: 
                CA:FALSE
            X509v3 Subject Key Identifier: 
                F2:DF:A7:F9:29:DA:FD:E8:FA:E5:C8:5B:6E:EB:58:77:F5:62:DF:13
            X509v3 Authority Key Identifier: 
                keyid:B2:76:EA:E7:03:22:F6:75:08:FC:8C:32:DC:52:C2:F5:20:C2:81:4C
                DirName:/CN=Easy-RSA CA
                serial:3E:D2:F8:FE:D1:A2:CA:71:0C:56:37:1E:3E:D0:6B:83:DA:00:9D:3C

            X509v3 Extended Key Usage: 
                TLS Web Server Authentication
            X509v3 Key Usage: 
                Digital Signature, Key Encipherment
            X509v3 Subject Alternative Name: 
                IP Address:100.100.12.13
    Signature Algorithm: sha256WithRSAEncryption
         c2:4e:6b:3e:4a:22:2c:44:df:a7:28:df:48:61:9e:d3:12:de:
         fb:2c:0e:0e:b7:24:7a:e6:f2:0e:18:57:bb:50:19:a8:c6:7a:
         a7:f0:8e:6a:65:79:75:79:09:ba:65:6d:45:43:98:d6:3a:32:
         77:67:8a:7e:fd:e2:ba:fd:aa:dc:a5:c0:ec:fe:ec:17:ce:db:
         b2:b4:79:68:56:ff:cd:17:94:dc:88:be:79:0a:03:db:c3:90:
         e9:25:7f:73:13:69:ac:98:5f:05:3d:17:85:9c:d0:d0:d7:3e:
         2e:c1:1f:8a:4e:19:c0:7f:68:ad:fb:34:bd:88:9e:6b:4a:16:
         53:a6:fd:ff:87:5e:88:bb:ba:5e:84:2c:7a:3d:1b:65:4f:f2:
         28:c7:12:59:70:c8:19:d7:6b:52:27:1e:a0:ba:e1:1e:73:92:
         b9:73:75:2e:14:92:0f:cb:57:c0:eb:d9:a6:7a:de:3b:c2:db:
         eb:2a:73:22:4f:b5:18:d9:01:fe:8c:fd:2e:75:d8:b1:20:76:
         68:b8:ec:1c:24:f6:a9:96:cf:51:fc:ca:d5:7b:b1:16:0a:d6:
         00:fd:46:15:bf:92:58:3e:fe:4d:66:59:b9:0f:98:e8:31:c2:
         08:40:95:13:58:a7:f2:10:5f:5a:5c:99:12:71:c4:27:7a:1d:
         0e:b2:a7:f1
-----BEGIN CERTIFICATE-----
MIIDbDCCAlSgAwIBAgIQF96/AFJOUtn7qPh2v0qB2DANBgkqhkiG9w0BAQsFADAW
MRQwEgYDVQQDDAtFYXN5LVJTQSBDQTAeFw0yNDA2MjAyMzIwMzFaFw0yNjA5MjMy
MzIwMzFaMBgxFjAUBgNVBAMMDTEwMC4xMDAuMTIuMTMwggEiMA0GCSqGSIb3DQEB
AQUAA4IBDwAwggEKAoIBAQC6SGBQzprtSzE3P0xE8o2vCP/AjBrDwRSxG2UXWOmP
VteWgLbqs+bFunhQBFFqxZz1qbDub69JQpjRApV8E/c4jV5FaDVwLPvfNBrPJ64D
SWYARLW9fCcHY5r0DbReQU4Aj+IJUB8F4lsCf1kN6XywVn6CKcvajJUWL1dJ8/R5
E5KJCEYu3rjLcE2O8YI3WQ03dCAza2Zqhib4NeiZx678JweKAawvu28C+0mkFSaO
7YSR8tpZVzy1aQcf8qVEybdlCisju6y8nKmktd0xY/qjmulvyL3BfTJ2rm+Zp+IY
j37tGXTczr3QfBtEiqM6NEf1mltnNPJyVT6+wP/93sIxAgMBAAGjgbMwgbAwCQYD
VR0TBAIwADAdBgNVHQ4EFgQU8t+n+Sna/ej65chbbutYd/Vi3xMwUQYDVR0jBEow
SIAUsnbq5wMi9nUI/Iwy3FLC9SDCgUyhGqQYMBYxFDASBgNVBAMMC0Vhc3ktUlNB
IENBghQ+0vj+0aLKcQxWNx4+0GuD2gCdPDATBgNVHSUEDDAKBggrBgEFBQcDATAL
BgNVHQ8EBAMCBaAwDwYDVR0RBAgwBocEZGQMDTANBgkqhkiG9w0BAQsFAAOCAQEA
wk5rPkoiLETfpyjfSGGe0xLe+ywODrckeubyDhhXu1AZqMZ6p/COamV5dXkJumVt
RUOY1joyd2eKfv3iuv2q3KXA7P7sF87bsrR5aFb/zReU3Ii+eQoD28OQ6SV/cxNp
rJhfBT0XhZzQ0Nc+LsEfik4ZwH9orfs0vYiea0oWU6b9/4deiLu6XoQsej0bZU/y
KMcSWXDIGddrUiceoLrhHnOSuXN1LhSSD8tXwOvZpnreO8Lb6ypzIk+1GNkB/oz9
LnXYsSB2aLjsHCT2qZbPUfzK1XuxFgrWAP1GFb+SWD7+TWZZuQ+Y6DHCCECVE1in
8hBfWlyZEnHEJ3odDrKn8Q==
-----END CERTIFICATE-----
