Certificate:
    Data:
        Version: 3 (0x2)
        Serial Number:
            e5:c3:8f:ed:5f:a1:34:0c:a4:47:c7:13:95:b0:b7:79
        Signature Algorithm: sha256WithRSAEncryption
        Issuer: CN=Easy-RSA CA
        Validity
            Not Before: Jun 21 00:20:29 2024 GMT
            Not After : Sep 24 00:20:29 2026 GMT
        Subject: CN=rsilva3
        Subject Public Key Info:
            Public Key Algorithm: rsaEncryption
                RSA Public-Key: (2048 bit)
                Modulus:
                    00:dc:cf:06:30:6d:05:66:47:06:6d:d3:b4:f6:ef:
                    54:8e:c3:ad:0d:38:a3:c2:4a:8b:03:f9:62:c7:c1:
                    f1:25:2a:95:8a:3d:26:1b:8b:97:c3:d2:18:d0:6a:
                    48:7f:3e:c7:09:54:3e:e2:0d:f6:b6:1a:51:33:b7:
                    62:5a:00:94:4c:a5:8d:23:9f:70:a8:26:fe:e4:75:
                    e7:87:a0:f5:b5:fa:20:f9:43:da:72:df:1e:72:ec:
                    f5:07:5f:87:1b:7a:a7:e4:f0:47:f5:47:44:49:57:
                    bf:42:fc:de:07:16:08:53:9b:d1:28:6e:10:b2:31:
                    ae:a3:de:5b:e2:4c:13:da:d2:e4:95:6d:2b:26:01:
                    af:4e:0f:c4:49:1c:9b:75:af:4a:b2:c7:40:e6:2a:
                    74:0c:3e:8b:bd:6f:d3:18:69:46:59:3f:c6:ab:9b:
                    f1:e9:c2:ad:04:83:4e:95:78:d1:e1:f5:57:e5:0a:
                    5d:aa:4f:6a:73:65:f6:51:68:57:20:f1:04:a7:95:
                    21:66:6d:f6:c7:a5:86:4d:4b:72:b4:53:da:92:43:
                    f7:e9:63:cf:17:c0:8b:58:eb:cf:74:ba:51:e2:91:
                    43:c8:8a:fb:00:ec:15:09:65:3b:74:c5:36:c8:a6:
                    38:69:09:13:91:63:d7:0d:93:0c:69:85:1c:79:a8:
                    9c:65
                Exponent: 65537 (0x10001)
        X509v3 extensions:
            X509v3 Basic Constraints: 
                CA:FALSE
            X509v3 Subject Key Identifier: 
                45:5A:BF:48:49:97:CE:04:EA:0F:31:D5:EC:F4:67:AB:33:B1:3D:7B
            X509v3 Authority Key Identifier: 
                keyid:27:8E:A8:42:09:38:2B:F2:61:D0:ED:EA:6B:9D:B8:D0:4C:72:38:2D
                DirName:/CN=Easy-RSA CA
                serial:44:0F:7D:62:D3:64:7D:8C:B6:E0:71:74:D4:33:30:74:13:9B:1C:84

            X509v3 Extended Key Usage: 
                TLS Web Client Authentication
            X509v3 Key Usage: 
                Digital Signature
    Signature Algorithm: sha256WithRSAEncryption
         8d:5e:33:8f:bf:df:f8:2a:aa:e6:dc:6b:7e:bd:7e:3a:e7:56:
         08:8e:cf:df:7f:e4:10:45:dd:22:69:4c:92:0b:d4:a7:da:b1:
         df:9a:f2:af:8a:59:c4:d5:b9:9f:eb:66:56:9f:41:e4:d0:7e:
         8e:b5:48:7a:fe:e1:e7:e5:67:78:13:7f:e2:e3:cb:51:cb:68:
         90:4d:eb:e3:d6:ef:0a:c7:35:ea:be:0a:1e:52:29:c2:1a:fc:
         a6:ac:33:6c:2b:bc:d0:b3:ad:93:94:10:83:2a:14:c6:40:c7:
         91:ea:94:33:7e:6d:54:11:26:54:e1:4c:f4:f2:9f:1a:ef:54:
         69:f9:ac:c0:e2:ee:f6:0b:c8:10:eb:8a:35:64:23:ac:68:6d:
         c5:04:ff:4f:5c:8a:3a:67:7c:31:ee:25:03:11:4c:0d:5d:ef:
         2b:da:fb:7e:15:6a:7b:46:3b:e6:6e:00:a2:64:02:8b:d6:fe:
         d0:cb:2b:fc:e4:c1:10:29:a5:b6:d5:92:4b:34:60:db:95:ff:
         35:03:76:f4:e1:4b:c7:e7:3f:f5:cb:a4:f9:7e:59:37:f2:27:
         13:6a:15:17:f0:29:7f:eb:04:83:9b:40:b5:f1:84:9d:62:fb:
         4e:8b:47:8c:50:ca:b3:e0:ff:81:c7:20:b6:ab:a1:6e:33:79:
         1a:5e:33:fe
-----BEGIN CERTIFICATE-----
MIIDVjCCAj6gAwIBAgIRAOXDj+1foTQMpEfHE5Wwt3kwDQYJKoZIhvcNAQELBQAw
FjEUMBIGA1UEAwwLRWFzeS1SU0EgQ0EwHhcNMjQwNjIxMDAyMDI5WhcNMjYwOTI0
MDAyMDI5WjASMRAwDgYDVQQDDAdyc2lsdmEzMIIBIjANBgkqhkiG9w0BAQEFAAOC
AQ8AMIIBCgKCAQEA3M8GMG0FZkcGbdO09u9UjsOtDTijwkqLA/lix8HxJSqVij0m
G4uXw9IY0GpIfz7HCVQ+4g32thpRM7diWgCUTKWNI59wqCb+5HXnh6D1tfog+UPa
ct8ecuz1B1+HG3qn5PBH9UdESVe/QvzeBxYIU5vRKG4QsjGuo95b4kwT2tLklW0r
JgGvTg/ESRybda9KssdA5ip0DD6LvW/TGGlGWT/Gq5vx6cKtBINOlXjR4fVX5Qpd
qk9qc2X2UWhXIPEEp5UhZm32x6WGTUtytFPakkP36WPPF8CLWOvPdLpR4pFDyIr7
AOwVCWU7dMU2yKY4aQkTkWPXDZMMaYUceaicZQIDAQABo4GiMIGfMAkGA1UdEwQC
MAAwHQYDVR0OBBYEFEVav0hJl84E6g8x1ez0Z6szsT17MFEGA1UdIwRKMEiAFCeO
qEIJOCvyYdDt6muduNBMcjgtoRqkGDAWMRQwEgYDVQQDDAtFYXN5LVJTQSBDQYIU
RA99YtNkfYy24HF01DMwdBObHIQwEwYDVR0lBAwwCgYIKwYBBQUHAwIwCwYDVR0P
BAQDAgeAMA0GCSqGSIb3DQEBCwUAA4IBAQCNXjOPv9/4Kqrm3Gt+vX4651YIjs/f
f+QQRd0iaUySC9Sn2rHfmvKvilnE1bmf62ZWn0Hk0H6OtUh6/uHn5Wd4E3/i48tR
y2iQTevj1u8KxzXqvgoeUinCGvymrDNsK7zQs62TlBCDKhTGQMeR6pQzfm1UESZU
4Uz08p8a71Rp+azA4u72C8gQ64o1ZCOsaG3FBP9PXIo6Z3wx7iUDEUwNXe8r2vt+
FWp7RjvmbgCiZAKL1v7Qyyv85MEQKaW21ZJLNGDblf81A3b04UvH5z/1y6T5flk3
8icTahUX8Cl/6wSDm0C18YSdYvtOi0eMUMqz4P+BxyC2q6FuM3kaXjP+
-----END CERTIFICATE-----
