Certificate:
    Data:
        Version: 3 (0x2)
        Serial Number:
            9b:b8:e5:1a:a7:d0:e6:f2:7f:fb:fe:82:95:b2:8a:5a
        Signature Algorithm: sha256WithRSAEncryption
        Issuer: CN=Easy-RSA CA
        Validity
            Not Before: Jun 21 00:18:08 2024 GMT
            Not After : Sep 24 00:18:08 2026 GMT
        Subject: CN=rsilva2
        Subject Public Key Info:
            Public Key Algorithm: rsaEncryption
                RSA Public-Key: (2048 bit)
                Modulus:
                    00:e4:11:c0:e7:63:6c:7f:db:20:a5:1b:2d:96:08:
                    95:5d:80:3c:c5:b5:aa:fb:5a:c3:38:16:2e:ec:65:
                    28:28:db:83:18:fd:ab:8f:9c:2f:55:ba:86:46:ac:
                    61:5b:65:c0:06:70:1e:d7:99:4f:39:bb:a2:a9:5b:
                    99:98:28:9f:4e:4d:29:ea:7b:9f:99:bb:c9:f3:e9:
                    f5:10:26:01:1d:19:52:e6:24:64:2d:ab:d3:e0:98:
                    80:8b:96:94:46:68:51:53:fd:27:be:43:42:0b:1e:
                    c9:aa:14:ee:e1:bd:49:bd:9f:8a:34:c2:f7:f6:cd:
                    02:8d:b7:50:36:43:87:98:28:4a:a1:58:7f:57:e8:
                    ef:1c:cb:2b:8a:b2:aa:99:5c:26:1c:0f:8e:a0:29:
                    96:24:f2:ce:a3:d7:e9:f1:ab:48:d3:40:f5:ab:56:
                    3b:69:7e:b6:ad:80:2a:eb:f3:4e:4c:97:69:5c:ae:
                    ed:23:4b:be:fa:db:a8:d7:af:ee:e1:3e:4f:4d:ef:
                    b7:e8:0c:36:56:c4:3e:7b:ab:ca:d3:a6:2e:61:e7:
                    43:1d:a9:8c:1c:2b:2d:3c:d7:d0:f9:f3:5c:71:f6:
                    5c:0d:69:40:0b:71:30:85:1a:f1:13:01:54:ae:14:
                    a9:7b:73:a6:ee:a5:b7:23:c6:da:5a:7d:cd:fd:3b:
                    7a:a5
                Exponent: 65537 (0x10001)
        X509v3 extensions:
            X509v3 Basic Constraints: 
                CA:FALSE
            X509v3 Subject Key Identifier: 
                66:C5:BA:5A:BA:61:70:B0:D8:E7:5A:52:58:36:02:3B:4D:25:DA:DF
            X509v3 Authority Key Identifier: 
                keyid:27:8E:A8:42:09:38:2B:F2:61:D0:ED:EA:6B:9D:B8:D0:4C:72:38:2D
                DirName:/CN=Easy-RSA CA
                serial:44:0F:7D:62:D3:64:7D:8C:B6:E0:71:74:D4:33:30:74:13:9B:1C:84

            X509v3 Extended Key Usage: 
                TLS Web Client Authentication
            X509v3 Key Usage: 
                Digital Signature
    Signature Algorithm: sha256WithRSAEncryption
         30:48:02:b9:02:e7:dc:9a:a3:1f:40:0f:30:b0:b1:b5:8f:8c:
         df:48:92:4b:22:8f:8c:c7:3b:ab:58:1e:f2:31:4b:3e:ef:92:
         a9:b8:4e:9d:10:fe:7b:71:b4:32:36:20:7b:fd:f8:bc:8b:9b:
         5f:bf:bf:f0:35:f8:a8:56:57:5d:3a:81:aa:43:1c:93:06:1e:
         16:3d:c7:00:45:9b:a8:29:89:76:42:18:c8:bf:2c:92:f0:d5:
         56:b3:58:23:30:c8:4b:00:d4:5d:81:fe:54:b7:6f:3d:ca:11:
         f7:4f:6b:e6:7d:f8:d5:9b:ce:b3:af:5d:0f:01:e9:9f:c0:4e:
         1d:b8:53:cd:e2:86:b5:e4:d9:65:a0:0a:11:cd:b2:1e:0b:ed:
         e2:00:fd:b8:e3:86:ed:63:b4:fa:f7:b9:fe:6e:47:fb:95:17:
         dd:11:f1:9d:6e:76:91:14:e4:fa:4c:62:44:8c:a1:eb:cb:1d:
         1d:fc:64:77:a7:eb:3a:ca:91:db:31:f3:25:6d:0f:0f:53:51:
         90:72:46:14:af:8a:7f:2a:63:11:d9:b4:73:31:95:69:dd:86:
         65:53:f5:37:7d:0e:e8:84:55:f3:bd:d3:8a:c9:19:b8:48:17:
         42:92:34:e3:0c:03:14:d1:fa:1c:43:79:ff:9b:83:bb:38:93:
         cf:da:8e:aa
-----BEGIN CERTIFICATE-----
MIIDVjCCAj6gAwIBAgIRAJu45Rqn0Obyf/v+gpWyilowDQYJKoZIhvcNAQELBQAw
FjEUMBIGA1UEAwwLRWFzeS1SU0EgQ0EwHhcNMjQwNjIxMDAxODA4WhcNMjYwOTI0
MDAxODA4WjASMRAwDgYDVQQDDAdyc2lsdmEyMIIBIjANBgkqhkiG9w0BAQEFAAOC
AQ8AMIIBCgKCAQEA5BHA52Nsf9sgpRstlgiVXYA8xbWq+1rDOBYu7GUoKNuDGP2r
j5wvVbqGRqxhW2XABnAe15lPObuiqVuZmCifTk0p6nufmbvJ8+n1ECYBHRlS5iRk
LavT4JiAi5aURmhRU/0nvkNCCx7JqhTu4b1JvZ+KNML39s0CjbdQNkOHmChKoVh/
V+jvHMsrirKqmVwmHA+OoCmWJPLOo9fp8atI00D1q1Y7aX62rYAq6/NOTJdpXK7t
I0u++tuo16/u4T5PTe+36Aw2VsQ+e6vK06YuYedDHamMHCstPNfQ+fNccfZcDWlA
C3EwhRrxEwFUrhSpe3Om7qW3I8baWn3N/Tt6pQIDAQABo4GiMIGfMAkGA1UdEwQC
MAAwHQYDVR0OBBYEFGbFulq6YXCw2OdaUlg2AjtNJdrfMFEGA1UdIwRKMEiAFCeO
qEIJOCvyYdDt6muduNBMcjgtoRqkGDAWMRQwEgYDVQQDDAtFYXN5LVJTQSBDQYIU
RA99YtNkfYy24HF01DMwdBObHIQwEwYDVR0lBAwwCgYIKwYBBQUHAwIwCwYDVR0P
BAQDAgeAMA0GCSqGSIb3DQEBCwUAA4IBAQAwSAK5AufcmqMfQA8wsLG1j4zfSJJL
Io+MxzurWB7yMUs+75KpuE6dEP57cbQyNiB7/fi8i5tfv7/wNfioVlddOoGqQxyT
Bh4WPccARZuoKYl2QhjIvyyS8NVWs1gjMMhLANRdgf5Ut289yhH3T2vmffjVm86z
r10PAemfwE4duFPN4oa15NlloAoRzbIeC+3iAP2444btY7T697n+bkf7lRfdEfGd
bnaRFOT6TGJEjKHryx0d/GR3p+s6ypHbMfMlbQ8PU1GQckYUr4p/KmMR2bRzMZVp
3YZlU/U3fQ7ohFXzvdOKyRm4SBdCkjTjDAMU0focQ3n/m4O7OJPP2o6q
-----END CERTIFICATE-----
