Certificate:
    Data:
        Version: 3 (0x2)
        Serial Number:
            b6:10:2d:9a:be:48:0f:e9:a9:21:96:e4:ad:f0:4b:9a
        Signature Algorithm: sha256WithRSAEncryption
        Issuer: CN=Easy-RSA CA
        Validity
            Not Before: Jun 21 00:21:30 2024 GMT
            Not After : Sep 24 00:21:30 2026 GMT
        Subject: CN=rsilva4
        Subject Public Key Info:
            Public Key Algorithm: rsaEncryption
                RSA Public-Key: (2048 bit)
                Modulus:
                    00:c7:b9:90:9a:c2:52:c4:42:5a:9e:46:cb:f4:26:
                    99:fb:9d:b5:f4:64:df:ca:12:3c:bc:d4:9c:f2:13:
                    b3:94:fa:4f:e2:c7:55:8f:40:54:d2:2e:57:55:25:
                    6f:a7:a9:34:20:55:6e:82:3c:2c:27:4a:a4:58:4e:
                    4e:8c:2b:06:b0:7c:02:44:4a:83:99:03:31:ad:04:
                    8e:06:71:97:d6:3d:4e:d4:7e:5a:cf:3e:82:58:9b:
                    84:5e:7d:36:4e:5b:6c:70:d7:f6:e2:28:52:79:33:
                    d0:00:c8:f5:dc:ba:57:7a:c4:3a:00:1d:3a:a2:11:
                    02:79:18:fe:28:aa:3d:d5:5c:ef:8a:0b:e2:15:15:
                    09:dd:4c:b6:05:62:2b:9d:c8:47:76:be:47:7d:1d:
                    f3:43:f0:ae:4f:4c:9d:75:39:aa:a5:34:29:3e:3c:
                    87:f7:fe:3b:ff:62:a3:27:af:80:83:6a:98:05:6d:
                    1e:a9:6e:c7:41:fa:ca:63:c8:66:f2:82:9a:ba:62:
                    29:56:f4:0c:c5:16:24:47:90:3c:12:99:51:25:a1:
                    00:11:bd:e1:22:72:a9:42:f8:fa:92:4d:e9:9a:9f:
                    ec:78:dd:59:64:89:36:43:6a:03:09:d2:94:5a:22:
                    85:bb:3c:34:94:83:6d:d9:68:f2:b3:53:9b:ff:4c:
                    cf:a9
                Exponent: 65537 (0x10001)
        X509v3 extensions:
            X509v3 Basic Constraints: 
                CA:FALSE
            X509v3 Subject Key Identifier: 
                F0:51:F6:B6:76:C1:0F:CB:22:15:3B:0C:D6:1C:D4:E4:CB:C0:58:78
            X509v3 Authority Key Identifier: 
                keyid:27:8E:A8:42:09:38:2B:F2:61:D0:ED:EA:6B:9D:B8:D0:4C:72:38:2D
                DirName:/CN=Easy-RSA CA
                serial:44:0F:7D:62:D3:64:7D:8C:B6:E0:71:74:D4:33:30:74:13:9B:1C:84

            X509v3 Extended Key Usage: 
                TLS Web Client Authentication
            X509v3 Key Usage: 
                Digital Signature
    Signature Algorithm: sha256WithRSAEncryption
         1a:b4:b5:b4:cc:d7:07:92:b0:4f:df:72:21:73:15:bc:14:06:
         d6:ba:a1:06:2c:13:28:27:fc:d8:38:30:ab:6c:f4:c9:62:8d:
         9d:61:29:fd:0b:7f:b3:b9:97:74:24:44:c9:3c:95:b1:33:23:
         e8:cc:b2:b0:3b:e9:a4:c4:2d:a4:85:aa:b5:70:b3:99:a8:2e:
         35:90:54:d1:32:cc:a2:e7:21:ed:74:ac:f7:cb:e5:15:91:cd:
         d1:3b:57:03:3f:ff:48:ed:55:70:9b:9a:4b:91:5b:92:5c:3d:
         ee:11:a3:6b:3c:ad:db:32:95:3a:9a:cb:a0:bb:8e:92:5a:7a:
         11:f9:ee:f1:38:ca:85:0d:0d:1d:f3:0a:34:47:b8:6c:33:97:
         b2:6a:67:41:ce:b9:a9:b4:23:60:ad:ff:c7:74:b0:01:39:1c:
         91:cc:5d:71:76:c4:13:37:28:0a:90:ef:c8:09:5c:13:a5:76:
         31:ad:ae:d5:10:31:bb:c9:ac:25:5f:a1:fa:bf:64:57:5a:43:
         db:1f:45:ac:52:47:db:6b:3f:68:06:f2:6d:4c:80:3e:a6:78:
         59:d1:c6:5c:39:12:1d:76:6a:3e:84:b3:42:50:7b:24:1a:87:
         57:02:95:f5:ae:64:ea:1d:91:5b:fb:8e:a0:50:ce:43:7e:5d:
         a1:f3:3f:68
-----BEGIN CERTIFICATE-----
MIIDVjCCAj6gAwIBAgIRALYQLZq+SA/pqSGW5K3wS5owDQYJKoZIhvcNAQELBQAw
FjEUMBIGA1UEAwwLRWFzeS1SU0EgQ0EwHhcNMjQwNjIxMDAyMTMwWhcNMjYwOTI0
MDAyMTMwWjASMRAwDgYDVQQDDAdyc2lsdmE0MIIBIjANBgkqhkiG9w0BAQEFAAOC
AQ8AMIIBCgKCAQEAx7mQmsJSxEJankbL9CaZ+5219GTfyhI8vNSc8hOzlPpP4sdV
j0BU0i5XVSVvp6k0IFVugjwsJ0qkWE5OjCsGsHwCREqDmQMxrQSOBnGX1j1O1H5a
zz6CWJuEXn02TltscNf24ihSeTPQAMj13LpXesQ6AB06ohECeRj+KKo91Vzvigvi
FRUJ3Uy2BWIrnchHdr5HfR3zQ/CuT0yddTmqpTQpPjyH9/47/2KjJ6+Ag2qYBW0e
qW7HQfrKY8hm8oKaumIpVvQMxRYkR5A8EplRJaEAEb3hInKpQvj6kk3pmp/seN1Z
ZIk2Q2oDCdKUWiKFuzw0lINt2Wjys1Ob/0zPqQIDAQABo4GiMIGfMAkGA1UdEwQC
MAAwHQYDVR0OBBYEFPBR9rZ2wQ/LIhU7DNYc1OTLwFh4MFEGA1UdIwRKMEiAFCeO
qEIJOCvyYdDt6muduNBMcjgtoRqkGDAWMRQwEgYDVQQDDAtFYXN5LVJTQSBDQYIU
RA99YtNkfYy24HF01DMwdBObHIQwEwYDVR0lBAwwCgYIKwYBBQUHAwIwCwYDVR0P
BAQDAgeAMA0GCSqGSIb3DQEBCwUAA4IBAQAatLW0zNcHkrBP33IhcxW8FAbWuqEG
LBMoJ/zYODCrbPTJYo2dYSn9C3+zuZd0JETJPJWxMyPozLKwO+mkxC2khaq1cLOZ
qC41kFTRMsyi5yHtdKz3y+UVkc3RO1cDP/9I7VVwm5pLkVuSXD3uEaNrPK3bMpU6
msugu46SWnoR+e7xOMqFDQ0d8wo0R7hsM5eyamdBzrmptCNgrf/HdLABORyRzF1x
dsQTNygKkO/ICVwTpXYxra7VEDG7yawlX6H6v2RXWkPbH0WsUkfbaz9oBvJtTIA+
pnhZ0cZcORIddmo+hLNCUHskGodXApX1rmTqHZFb+46gUM5Dfl2h8z9o
-----END CERTIFICATE-----
