Certificate:
    Data:
        Version: 3 (0x2)
        Serial Number:
            42:60:b6:df:db:ab:eb:9b:ab:d3:6e:4e:12:66:69:c7
        Signature Algorithm: sha256WithRSAEncryption
        Issuer: CN=Easy-RSA CA
        Validity
            Not Before: Jun 21 00:56:53 2024 GMT
            Not After : Sep 24 00:56:53 2026 GMT
        Subject: CN=rsilva
        Subject Public Key Info:
            Public Key Algorithm: rsaEncryption
                RSA Public-Key: (2048 bit)
                Modulus:
                    00:ee:f3:bb:ce:3c:21:02:f4:8e:aa:ca:54:36:75:
                    e0:c5:fd:9f:1e:09:c1:e3:1b:52:8f:6d:74:8f:58:
                    ba:88:99:25:ee:1f:4c:f8:79:ef:ea:a6:0f:a8:40:
                    ea:e3:da:1f:59:f0:81:fd:8f:63:56:aa:14:4d:a1:
                    d1:d6:af:23:05:21:03:93:67:88:4a:5a:23:76:17:
                    25:8c:67:f6:75:13:73:75:08:27:76:56:31:f0:71:
                    ea:a5:db:6b:ae:29:b3:4c:6f:49:fb:e0:4e:fb:e2:
                    5f:02:62:3c:89:a8:9c:2d:ea:1d:0e:50:08:aa:b7:
                    9f:51:17:9a:f3:bb:b0:92:0a:b2:57:09:55:d4:b3:
                    11:fd:38:72:ae:ad:fe:2b:74:31:4d:32:0e:5c:27:
                    15:47:8c:95:80:70:d5:35:b0:fa:7d:54:44:dd:cb:
                    48:ef:4e:65:d1:32:f9:2d:3e:c2:3a:8d:fc:56:d6:
                    45:b6:29:55:96:c3:d1:40:b9:11:26:b2:1c:8c:b8:
                    18:90:2d:e7:6c:73:8a:51:19:ce:23:c0:42:04:0e:
                    c5:4d:e6:c4:0b:88:b4:0e:a8:09:59:04:de:89:ba:
                    72:35:8a:96:01:c8:3d:5f:7b:c4:11:ff:a2:85:e1:
                    19:01:17:b4:5a:31:7d:2f:f3:38:92:9b:d8:04:f7:
                    4b:d7
                Exponent: 65537 (0x10001)
        X509v3 extensions:
            X509v3 Basic Constraints: 
                CA:FALSE
            X509v3 Subject Key Identifier: 
                1F:04:EB:4E:1C:DA:A7:8E:52:D7:11:36:B6:47:CA:BF:6F:60:B7:97
            X509v3 Authority Key Identifier: 
                keyid:27:8E:A8:42:09:38:2B:F2:61:D0:ED:EA:6B:9D:B8:D0:4C:72:38:2D
                DirName:/CN=Easy-RSA CA
                serial:44:0F:7D:62:D3:64:7D:8C:B6:E0:71:74:D4:33:30:74:13:9B:1C:84

            X509v3 Extended Key Usage: 
                TLS Web Client Authentication
            X509v3 Key Usage: 
                Digital Signature
    Signature Algorithm: sha256WithRSAEncryption
         90:07:61:f9:51:5b:3d:85:e4:b5:e3:d0:8d:4a:a0:3f:0f:d7:
         89:93:95:f3:88:55:25:40:69:75:0a:a9:8c:dc:7d:8b:75:ab:
         ee:e1:5b:bd:dd:a9:45:54:22:87:57:04:41:15:c5:d3:01:0c:
         c6:1e:58:ab:19:82:56:0c:8f:19:6d:cf:3e:dd:fc:54:27:5a:
         07:95:eb:ff:d9:d3:8f:c2:b5:3c:34:6f:71:40:6f:24:6b:5a:
         3c:b7:25:2a:fb:97:f0:f9:e9:c9:89:b6:88:2a:28:78:1b:81:
         31:da:5c:f8:ea:94:7a:b2:e1:6e:7a:60:1d:15:15:73:f3:28:
         04:54:56:02:5a:52:dc:c4:9a:5c:d2:c0:15:e4:97:14:cf:23:
         6a:33:78:82:f0:09:53:08:a9:49:a4:9a:71:fd:b3:f0:c0:c7:
         61:56:6d:27:67:ac:93:e4:03:e6:a8:64:28:b4:b0:27:25:64:
         74:0c:3f:5c:c3:83:e8:bf:b6:b5:fb:25:d3:b2:e8:3e:d2:8f:
         1c:df:80:2f:e3:f9:16:27:74:4d:11:a7:1c:c7:f1:f2:a1:c5:
         eb:34:57:19:b3:a9:c9:58:3c:76:86:86:49:63:0c:90:e8:d8:
         6d:91:9f:1a:16:df:3c:ca:d3:f8:de:0e:13:72:f7:bf:d4:2a:
         63:34:39:ba
-----BEGIN CERTIFICATE-----
MIIDVDCCAjygAwIBAgIQQmC239ur65ur025OEmZpxzANBgkqhkiG9w0BAQsFADAW
MRQwEgYDVQQDDAtFYXN5LVJTQSBDQTAeFw0yNDA2MjEwMDU2NTNaFw0yNjA5MjQw
MDU2NTNaMBExDzANBgNVBAMMBnJzaWx2YTCCASIwDQYJKoZIhvcNAQEBBQADggEP
ADCCAQoCggEBAO7zu848IQL0jqrKVDZ14MX9nx4JweMbUo9tdI9YuoiZJe4fTPh5
7+qmD6hA6uPaH1nwgf2PY1aqFE2h0davIwUhA5NniEpaI3YXJYxn9nUTc3UIJ3ZW
MfBx6qXba64ps0xvSfvgTvviXwJiPImonC3qHQ5QCKq3n1EXmvO7sJIKslcJVdSz
Ef04cq6t/it0MU0yDlwnFUeMlYBw1TWw+n1URN3LSO9OZdEy+S0+wjqN/FbWRbYp
VZbD0UC5ESayHIy4GJAt52xzilEZziPAQgQOxU3mxAuItA6oCVkE3om6cjWKlgHI
PV97xBH/ooXhGQEXtFoxfS/zOJKb2AT3S9cCAwEAAaOBojCBnzAJBgNVHRMEAjAA
MB0GA1UdDgQWBBQfBOtOHNqnjlLXETa2R8q/b2C3lzBRBgNVHSMESjBIgBQnjqhC
CTgr8mHQ7eprnbjQTHI4LaEapBgwFjEUMBIGA1UEAwwLRWFzeS1SU0EgQ0GCFEQP
fWLTZH2MtuBxdNQzMHQTmxyEMBMGA1UdJQQMMAoGCCsGAQUFBwMCMAsGA1UdDwQE
AwIHgDANBgkqhkiG9w0BAQsFAAOCAQEAkAdh+VFbPYXktePQjUqgPw/XiZOV84hV
JUBpdQqpjNx9i3Wr7uFbvd2pRVQih1cEQRXF0wEMxh5YqxmCVgyPGW3PPt38VCda
B5Xr/9nTj8K1PDRvcUBvJGtaPLclKvuX8PnpyYm2iCooeBuBMdpc+OqUerLhbnpg
HRUVc/MoBFRWAlpS3MSaXNLAFeSXFM8jajN4gvAJUwipSaSacf2z8MDHYVZtJ2es
k+QD5qhkKLSwJyVkdAw/XMOD6L+2tfsl07LoPtKPHN+AL+P5Fid0TRGnHMfx8qHF
6zRXGbOpyVg8doaGSWMMkOjYbZGfGhbfPMrT+N4OE3L3v9QqYzQ5ug==
-----END CERTIFICATE-----
