Certificate:
    Data:
        Version: 3 (0x2)
        Serial Number:
            76:9c:a5:30:0c:37:55:aa:2c:ad:81:b5:fb:0d:44:34
        Signature Algorithm: sha256WithRSAEncryption
        Issuer: CN=Easy-RSA CA
        Validity
            Not Before: Jun 21 00:13:37 2024 GMT
            Not After : Sep 24 00:13:37 2026 GMT
        Subject: CN=100.100.1.12
        Subject Public Key Info:
            Public Key Algorithm: rsaEncryption
                RSA Public-Key: (2048 bit)
                Modulus:
                    00:bc:2a:77:0a:26:9b:ee:60:29:97:c4:ac:94:fb:
                    b8:27:89:a4:d2:93:6f:3d:e6:22:df:d2:bd:64:7c:
                    40:94:b2:4d:d6:79:ea:0d:5a:06:8e:e8:02:e9:57:
                    44:74:6e:fe:1e:13:f2:77:a9:24:8f:26:5a:59:b0:
                    89:92:9a:be:18:24:d8:63:2d:e6:92:f2:2a:39:70:
                    6e:9d:e0:67:46:cf:77:80:a3:50:0f:b6:42:12:66:
                    67:cc:d6:48:fb:91:19:20:a6:2d:4b:ed:75:49:23:
                    81:eb:7b:82:e5:76:32:75:ab:46:d9:92:87:fb:f4:
                    42:74:3a:f2:ea:be:93:2a:1a:80:43:52:3c:bc:7a:
                    9d:61:08:32:35:39:20:6b:54:0a:14:04:98:23:2f:
                    30:2d:02:24:b0:e2:6d:8e:20:8a:87:05:0b:d9:7f:
                    1a:05:9b:d3:ca:ab:87:01:4f:fc:70:2a:5f:22:da:
                    c0:dd:23:45:ea:90:09:0e:91:8b:5b:c9:2d:4b:0d:
                    97:53:f2:82:d5:e0:81:06:72:f9:e5:17:23:b6:9e:
                    b9:aa:6c:99:8b:a2:00:6e:01:e5:36:66:36:a6:10:
                    28:75:2f:a8:81:4f:c7:ee:3d:ac:ec:36:f2:92:d1:
                    a3:3b:78:c0:ef:b4:e7:89:da:47:2b:ee:7b:dc:4f:
                    11:4d
                Exponent: 65537 (0x10001)
        X509v3 extensions:
            X509v3 Basic Constraints: 
                CA:FALSE
            X509v3 Subject Key Identifier: 
                1B:59:66:1C:7C:FD:9C:CF:51:87:80:D1:DC:26:69:B0:1C:4D:F3:34
            X509v3 Authority Key Identifier: 
                keyid:27:8E:A8:42:09:38:2B:F2:61:D0:ED:EA:6B:9D:B8:D0:4C:72:38:2D
                DirName:/CN=Easy-RSA CA
                serial:44:0F:7D:62:D3:64:7D:8C:B6:E0:71:74:D4:33:30:74:13:9B:1C:84

            X509v3 Extended Key Usage: 
                TLS Web Server Authentication
            X509v3 Key Usage: 
                Digital Signature, Key Encipherment
            X509v3 Subject Alternative Name: 
                IP Address:100.100.1.12
    Signature Algorithm: sha256WithRSAEncryption
         70:2d:bc:1e:b4:e2:82:a3:3c:e4:e4:87:a8:d4:df:89:3a:28:
         2d:06:2e:01:51:8f:ee:e1:57:d2:fe:a6:42:08:7a:f9:d2:2d:
         71:ac:84:74:80:09:36:8e:4d:41:38:9e:ae:f2:6a:b2:49:0f:
         1c:57:cb:5d:6e:22:2b:13:97:05:c0:ed:e2:91:2c:46:95:be:
         ee:fd:b6:0b:e5:f0:84:c9:4e:08:01:b9:ea:c9:cc:3f:c8:a0:
         b1:d4:62:3d:8e:01:c6:1a:77:79:21:c4:65:c1:6d:f1:5d:62:
         6d:00:ae:9f:31:43:68:2e:99:5d:0b:53:2c:06:19:61:b0:5e:
         a2:da:d7:65:a0:b4:d0:ce:82:fb:85:e9:42:aa:0b:d1:9e:2f:
         76:5a:f9:63:46:92:0a:27:5e:d9:9f:51:73:d8:58:b2:44:0b:
         4a:3b:73:ff:f5:b9:47:66:d7:d5:f0:6a:62:76:e2:88:86:7d:
         0a:71:8f:8c:05:3d:aa:4a:d5:a4:70:30:0c:f3:9a:6a:ed:11:
         50:3d:79:8a:57:f6:4b:f6:f2:9f:2e:ca:d4:01:26:25:34:1d:
         09:b7:a2:32:af:ed:2a:65:06:9b:f3:a4:95:c4:33:64:bf:f8:
         f7:d2:2a:14:1a:9a:8e:e4:4b:64:15:35:49:27:59:de:f7:15:
         80:db:dc:b9
-----BEGIN CERTIFICATE-----
MIIDazCCAlOgAwIBAgIQdpylMAw3VaosrYG1+w1ENDANBgkqhkiG9w0BAQsFADAW
MRQwEgYDVQQDDAtFYXN5LVJTQSBDQTAeFw0yNDA2MjEwMDEzMzdaFw0yNjA5MjQw
MDEzMzdaMBcxFTATBgNVBAMMDDEwMC4xMDAuMS4xMjCCASIwDQYJKoZIhvcNAQEB
BQADggEPADCCAQoCggEBALwqdwomm+5gKZfErJT7uCeJpNKTbz3mIt/SvWR8QJSy
TdZ56g1aBo7oAulXRHRu/h4T8nepJI8mWlmwiZKavhgk2GMt5pLyKjlwbp3gZ0bP
d4CjUA+2QhJmZ8zWSPuRGSCmLUvtdUkjget7guV2MnWrRtmSh/v0QnQ68uq+kyoa
gENSPLx6nWEIMjU5IGtUChQEmCMvMC0CJLDibY4giocFC9l/GgWb08qrhwFP/HAq
XyLawN0jReqQCQ6Ri1vJLUsNl1PygtXggQZy+eUXI7aeuapsmYuiAG4B5TZmNqYQ
KHUvqIFPx+49rOw28pLRozt4wO+054naRyvue9xPEU0CAwEAAaOBszCBsDAJBgNV
HRMEAjAAMB0GA1UdDgQWBBQbWWYcfP2cz1GHgNHcJmmwHE3zNDBRBgNVHSMESjBI
gBQnjqhCCTgr8mHQ7eprnbjQTHI4LaEapBgwFjEUMBIGA1UEAwwLRWFzeS1SU0Eg
Q0GCFEQPfWLTZH2MtuBxdNQzMHQTmxyEMBMGA1UdJQQMMAoGCCsGAQUFBwMBMAsG
A1UdDwQEAwIFoDAPBgNVHREECDAGhwRkZAEMMA0GCSqGSIb3DQEBCwUAA4IBAQBw
LbwetOKCozzk5Ieo1N+JOigtBi4BUY/u4VfS/qZCCHr50i1xrIR0gAk2jk1BOJ6u
8mqySQ8cV8tdbiIrE5cFwO3ikSxGlb7u/bYL5fCEyU4IAbnqycw/yKCx1GI9jgHG
Gnd5IcRlwW3xXWJtAK6fMUNoLpldC1MsBhlhsF6i2tdloLTQzoL7helCqgvRni92
WvljRpIKJ17Zn1Fz2FiyRAtKO3P/9blHZtfV8GpiduKIhn0KcY+MBT2qStWkcDAM
85pq7RFQPXmKV/ZL9vKfLsrUASYlNB0Jt6Iyr+0qZQab86SVxDNkv/j30ioUGpqO
5EtkFTVJJ1ne9xWA29y5
-----END CERTIFICATE-----
