Certificate:
    Data:
        Version: 3 (0x2)
        Serial Number:
            b3:cd:ca:ec:dd:5c:48:b1:e9:de:14:01:9c:2e:4b:1e
        Signature Algorithm: sha256WithRSAEncryption
        Issuer: CN=Easy-RSA CA
        Validity
            Not Before: Jun 21 00:16:44 2024 GMT
            Not After : Sep 24 00:16:44 2026 GMT
        Subject: CN=rsilva
        Subject Public Key Info:
            Public Key Algorithm: rsaEncryption
                RSA Public-Key: (2048 bit)
                Modulus:
                    00:d0:22:e0:53:96:2d:1d:3c:c3:da:4b:3b:bc:b5:
                    48:63:af:12:9e:4d:66:fa:ee:92:2b:2a:12:cf:db:
                    ba:15:74:d8:80:24:a6:4c:2f:bd:08:f9:ac:ac:1d:
                    23:8f:ab:1f:85:0b:42:95:7a:88:08:8a:18:f3:6d:
                    b7:ac:18:26:8d:91:6e:ff:b9:82:88:4a:fe:61:24:
                    0b:94:67:07:91:6f:a1:62:b3:fa:39:e6:69:3a:88:
                    6d:1c:f5:78:92:92:ab:72:f3:e5:c3:36:87:b0:fe:
                    3b:30:db:33:3a:9e:a6:05:cb:c0:7b:96:1a:cf:20:
                    e0:50:0a:72:b0:66:10:6b:72:32:0c:be:99:43:0b:
                    88:9c:de:52:4a:4a:8f:40:9d:be:e1:cf:08:4f:b7:
                    db:ac:38:0d:30:c6:52:9c:70:ea:10:8a:75:88:63:
                    08:ec:d9:ba:28:7e:53:eb:fb:c1:21:23:ae:cd:c8:
                    07:c6:b2:f0:26:f0:d3:41:d4:fb:a9:ae:1a:a2:56:
                    15:dc:4d:99:f0:b9:34:52:82:4f:1d:66:07:5d:1f:
                    47:c8:c9:0d:e8:73:6c:a7:ed:d7:c7:5f:88:36:8c:
                    93:46:73:67:1f:16:fa:f8:3a:fc:bd:0b:00:91:82:
                    88:ec:e1:c5:c1:f3:c3:52:87:35:9e:d3:75:f3:0f:
                    0f:e9
                Exponent: 65537 (0x10001)
        X509v3 extensions:
            X509v3 Basic Constraints: 
                CA:FALSE
            X509v3 Subject Key Identifier: 
                F1:E8:FA:21:BF:C7:BF:49:CB:58:1D:77:88:32:3C:C2:AA:DC:80:A7
            X509v3 Authority Key Identifier: 
                keyid:27:8E:A8:42:09:38:2B:F2:61:D0:ED:EA:6B:9D:B8:D0:4C:72:38:2D
                DirName:/CN=Easy-RSA CA
                serial:44:0F:7D:62:D3:64:7D:8C:B6:E0:71:74:D4:33:30:74:13:9B:1C:84

            X509v3 Extended Key Usage: 
                TLS Web Client Authentication
            X509v3 Key Usage: 
                Digital Signature
    Signature Algorithm: sha256WithRSAEncryption
         c2:95:c8:cf:d4:d0:b3:23:d9:0b:3a:cf:3c:62:db:f4:9a:1f:
         5b:04:3b:00:a3:c0:a2:82:07:1c:f5:cf:e0:cd:72:80:d9:81:
         4b:ac:8b:98:5c:3e:d4:b6:f7:99:58:29:6a:f1:aa:f2:8a:aa:
         5f:9a:79:36:b5:4e:6d:ca:ee:5a:74:c9:e3:93:5b:64:5d:64:
         eb:81:08:c9:65:a9:d5:57:8b:69:19:c6:8a:5d:31:fc:7a:de:
         14:7d:84:6f:77:b9:67:0a:0a:ef:cc:22:4c:5b:d1:34:82:70:
         6a:44:e2:6a:6c:dc:ff:b1:fe:16:ea:a7:aa:da:bf:22:c8:fd:
         e4:bf:5d:b3:8a:bf:0e:67:0c:07:9e:60:0a:28:9c:9d:3a:60:
         59:f5:02:5d:24:a9:11:c2:46:4a:23:04:4d:99:42:05:81:8d:
         aa:58:4a:01:9e:5a:b5:42:a9:46:ae:45:52:b8:4d:1e:dc:12:
         c0:a0:c8:e0:86:4c:af:be:2c:79:8d:7e:32:98:5f:fb:02:d8:
         99:83:85:1b:9f:c7:e9:1d:14:b0:06:9f:3b:a9:3e:67:ff:50:
         58:b8:f5:0e:66:57:8f:68:bc:de:d3:4e:b3:c6:a9:d0:c9:d2:
         dc:95:37:a9:e8:4f:32:e8:df:da:5f:f9:46:fc:1f:7d:65:ad:
         27:79:bb:b4
-----BEGIN CERTIFICATE-----
MIIDVTCCAj2gAwIBAgIRALPNyuzdXEix6d4UAZwuSx4wDQYJKoZIhvcNAQELBQAw
FjEUMBIGA1UEAwwLRWFzeS1SU0EgQ0EwHhcNMjQwNjIxMDAxNjQ0WhcNMjYwOTI0
MDAxNjQ0WjARMQ8wDQYDVQQDDAZyc2lsdmEwggEiMA0GCSqGSIb3DQEBAQUAA4IB
DwAwggEKAoIBAQDQIuBTli0dPMPaSzu8tUhjrxKeTWb67pIrKhLP27oVdNiAJKZM
L70I+aysHSOPqx+FC0KVeogIihjzbbesGCaNkW7/uYKISv5hJAuUZweRb6Fis/o5
5mk6iG0c9XiSkqty8+XDNoew/jsw2zM6nqYFy8B7lhrPIOBQCnKwZhBrcjIMvplD
C4ic3lJKSo9Anb7hzwhPt9usOA0wxlKccOoQinWIYwjs2booflPr+8EhI67NyAfG
svAm8NNB1PuprhqiVhXcTZnwuTRSgk8dZgddH0fIyQ3oc2yn7dfHX4g2jJNGc2cf
Fvr4Ovy9CwCRgojs4cXB88NShzWe03XzDw/pAgMBAAGjgaIwgZ8wCQYDVR0TBAIw
ADAdBgNVHQ4EFgQU8ej6Ib/Hv0nLWB13iDI8wqrcgKcwUQYDVR0jBEowSIAUJ46o
Qgk4K/Jh0O3qa5240ExyOC2hGqQYMBYxFDASBgNVBAMMC0Vhc3ktUlNBIENBghRE
D31i02R9jLbgcXTUMzB0E5schDATBgNVHSUEDDAKBggrBgEFBQcDAjALBgNVHQ8E
BAMCB4AwDQYJKoZIhvcNAQELBQADggEBAMKVyM/U0LMj2Qs6zzxi2/SaH1sEOwCj
wKKCBxz1z+DNcoDZgUusi5hcPtS295lYKWrxqvKKql+aeTa1Tm3K7lp0yeOTW2Rd
ZOuBCMllqdVXi2kZxopdMfx63hR9hG93uWcKCu/MIkxb0TSCcGpE4mps3P+x/hbq
p6ravyLI/eS/XbOKvw5nDAeeYAoonJ06YFn1Al0kqRHCRkojBE2ZQgWBjapYSgGe
WrVCqUauRVK4TR7cEsCgyOCGTK++LHmNfjKYX/sC2JmDhRufx+kdFLAGnzupPmf/
UFi49Q5mV49ovN7TTrPGqdDJ0tyVN6noTzLo39pf+Ub8H31lrSd5u7Q=
-----END CERTIFICATE-----
